; Function Attrs: nounwind uwtable
define ptr @l_Lake_takeArgs___rarg(ptr noundef %0) #0 {
  %2 = getelementptr inbounds nuw i8, ptr %0, i64 24
  %3 = load ptr, ptr %2, align 8, !tbaa !11
  %4 = ptrtoint ptr %3 to i64
  %5 = and i64 %4, 1
  %.not = icmp eq i64 %5, 0
  br i1 %.not, label %6, label %lean_inc.exit

6:                                                ; preds = %1
  %.val.i = load i32, ptr %3, align 4, !tbaa !4
  %7 = icmp sgt i32 %.val.i, 0
  br i1 %7, label %8, label %10, !prof !9

8:                                                ; preds = %6
  %9 = add nuw i32 %.val.i, 1
  store i32 %9, ptr %3, align 4, !tbaa !4
  br label %lean_inc.exit

10:                                               ; preds = %6
  %.not.i6 = icmp eq i32 %.val.i, 0
  br i1 %.not.i6, label %lean_inc.exit, label %11

11:                                               ; preds = %10
  tail call void @lean_inc_ref_cold(ptr noundef nonnull %3) #3
  br label %lean_inc.exit

lean_inc.exit:                                    ; preds = %11, %10, %8, %1
  %12 = ptrtoint ptr %0 to i64
  %13 = and i64 %12, 1
  %.not7 = icmp eq i64 %13, 0
  br i1 %.not7, label %14, label %lean_dec.exit

14:                                               ; preds = %lean_inc.exit
  %15 = load i32, ptr %0, align 4, !tbaa !4
  %16 = icmp sgt i32 %15, 1
  br i1 %16, label %17, label %19, !prof !9

17:                                               ; preds = %14
  %18 = add nsw i32 %15, -1
  store i32 %18, ptr %0, align 4, !tbaa !4
  br label %lean_dec.exit

19:                                               ; preds = %14
  %.not.i = icmp eq i32 %15, 0
  br i1 %.not.i, label %lean_dec.exit, label %20

20:                                               ; preds = %19
  tail call void @lean_dec_ref_cold(ptr noundef nonnull %0) #3
  br label %lean_dec.exit

lean_dec.exit:                                    ; preds = %20, %19, %17, %lean_inc.exit
  %21 = load ptr, ptr @l_Lake_takeArgs___rarg___closed__1, align 8, !tbaa !11
  %22 = tail call ptr @lean_apply_2(ptr noundef %3, ptr noundef nonnull inttoptr (i64 1 to ptr), ptr noundef %21) #3
  ret ptr %22
}